target datalayout = "e-m:e-p270:32:32-p271:32:32-p272:64:64-i64:64-i128:128-f80:128-n8:16:32:64-S128"
target triple = "x86_64-unknown-linux-gnu"

%"class.std::set" = type { %"class.std::_Rb_tree" }
%"class.std::_Rb_tree" = type { %"struct.std::_Rb_tree<std::__cxx11::basic_string<char>, std::__cxx11::basic_string<char>, std::_Identity<std::__cxx11::basic_string<char>>, re2::Prefilter::LengthThenLex>::_Rb_tree_impl" }
%"struct.std::_Rb_tree<std::__cxx11::basic_string<char>, std::__cxx11::basic_string<char>, std::_Identity<std::__cxx11::basic_string<char>>, re2::Prefilter::LengthThenLex>::_Rb_tree_impl" = type { %"struct.std::_Rb_tree_key_compare", %"struct.std::_Rb_tree_header" }
%"struct.std::_Rb_tree_key_compare" = type { %"struct.re2::Prefilter::LengthThenLex" }
%"struct.re2::Prefilter::LengthThenLex" = type { i8 }
%"struct.std::_Rb_tree_header" = type { %"struct.std::_Rb_tree_node_base", i64 }
%"struct.std::_Rb_tree_node_base" = type { i32, ptr, ptr, ptr }
%"class.re2::Prefilter::Info" = type { %"class.std::set", i8, ptr }

@_ZN3re29Prefilter4InfoC1Ev = unnamed_addr alias void (ptr), ptr @_ZN3re29Prefilter4InfoC2Ev
@_ZN3re29Prefilter4InfoD1Ev = unnamed_addr alias void (ptr), ptr @_ZN3re29Prefilter4InfoD2Ev

; Function Attrs: mustprogress uwtable
define noundef ptr @_ZN3re29Prefilter4Info9TakeMatchEv(ptr noundef nonnull align 8 dereferenceable(64) %this) #0 align 2 {
entry:
  %this.addr = alloca ptr, align 8
  %m = alloca ptr, align 8
  store ptr %this, ptr %this.addr, align 8
  %this1 = load ptr, ptr %this.addr, align 8
  %is_exact_ = getelementptr inbounds %"class.re2::Prefilter::Info", ptr %this1, i32 0, i32 1
  %0 = load i8, ptr %is_exact_, align 8
  %tobool = trunc i8 %0 to i1
  br i1 %tobool, label %if.then, label %if.end

if.then:                                          ; preds = %entry
  %exact_ = getelementptr inbounds %"class.re2::Prefilter::Info", ptr %this1, i32 0, i32 0
  %call = call noundef ptr @_ZN3re29Prefilter9OrStringsEPSt3setINSt7__cxx1112basic_stringIcSt11char_traitsIcESaIcEEENS0_13LengthThenLexESaIS7_EE(ptr noundef %exact_)
  %match_ = getelementptr inbounds %"class.re2::Prefilter::Info", ptr %this1, i32 0, i32 2
  store ptr %call, ptr %match_, align 8
  %is_exact_2 = getelementptr inbounds %"class.re2::Prefilter::Info", ptr %this1, i32 0, i32 1
  store i8 0, ptr %is_exact_2, align 8
  br label %if.end

if.end:                                           ; preds = %if.then, %entry
  %match_3 = getelementptr inbounds %"class.re2::Prefilter::Info", ptr %this1, i32 0, i32 2
  %1 = load ptr, ptr %match_3, align 8
  store ptr %1, ptr %m, align 8
  %match_4 = getelementptr inbounds %"class.re2::Prefilter::Info", ptr %this1, i32 0, i32 2
  store ptr null, ptr %match_4, align 8
  %2 = load ptr, ptr %m, align 8
  ret ptr %2
}

; Function Attrs: mustprogress uwtable
define noundef ptr @_ZN3re29Prefilter4Info4PlusEPS1_(ptr noundef %a) #0 align 2 personality ptr @__gxx_personality_v0 {
entry:
  %a.addr = alloca ptr, align 8
  %ab = alloca ptr, align 8
  %exn.slot = alloca ptr, align 8
  %ehselector.slot = alloca i32, align 4
  store ptr %a, ptr %a.addr, align 8
  %call = call noalias noundef nonnull ptr @_Znwm(i64 noundef 64) #14
  invoke void @_ZN3re29Prefilter4InfoC1Ev(ptr noundef nonnull align 8 dereferenceable(64) %call)
          to label %invoke.cont unwind label %lpad

invoke.cont:                                      ; preds = %entry
  store ptr %call, ptr %ab, align 8
  %0 = load ptr, ptr %a.addr, align 8
  %call1 = call noundef ptr @_ZN3re29Prefilter4Info9TakeMatchEv(ptr noundef nonnull align 8 dereferenceable(64) %0)
  %1 = load ptr, ptr %ab, align 8
  %match_ = getelementptr inbounds %"class.re2::Prefilter::Info", ptr %1, i32 0, i32 2
  store ptr %call1, ptr %match_, align 8
  %2 = load ptr, ptr %ab, align 8
  %is_exact_ = getelementptr inbounds %"class.re2::Prefilter::Info", ptr %2, i32 0, i32 1
  store i8 0, ptr %is_exact_, align 8
  %3 = load ptr, ptr %a.addr, align 8
  %isnull = icmp eq ptr %3, null
  br i1 %isnull, label %delete.end, label %delete.notnull

delete.notnull:                                   ; preds = %invoke.cont
  call void @_ZN3re29Prefilter4InfoD1Ev(ptr noundef nonnull align 8 dereferenceable(64) %3) #13
  call void @_ZdlPv(ptr noundef %3) #15
  br label %delete.end

delete.end:                                       ; preds = %delete.notnull, %invoke.cont
  %4 = load ptr, ptr %ab, align 8
  ret ptr %4

lpad:                                             ; preds = %entry
  %5 = landingpad { ptr, i32 }
          cleanup
  %6 = extractvalue { ptr, i32 } %5, 0
  store ptr %6, ptr %exn.slot, align 8
  %7 = extractvalue { ptr, i32 } %5, 1
  store i32 %7, ptr %ehselector.slot, align 4
  call void @_ZdlPv(ptr noundef %call) #15
  br label %eh.resume

eh.resume:                                        ; preds = %lpad
  %exn = load ptr, ptr %exn.slot, align 8
  %sel = load i32, ptr %ehselector.slot, align 4
  %lpad.val = insertvalue { ptr, i32 } poison, ptr %exn, 0
  %lpad.val2 = insertvalue { ptr, i32 } %lpad.val, i32 %sel, 1
  resume { ptr, i32 } %lpad.val2
}