; Function Attrs: mustprogress uwtable
define noundef ptr @_ZN3re29Prefilter4Info4PlusEPS1_(ptr noundef %a) local_unnamed_addr #0 align 2 personality ptr @__gxx_personality_v0 {
entry:
  %call = tail call noalias noundef nonnull dereferenceable(64) ptr @_Znwm(i64 noundef 64) #17
  invoke void @_ZN3re29Prefilter4InfoC1Ev(ptr noundef nonnull align 8 dereferenceable(64) %call)
          to label %invoke.cont unwind label %lpad

invoke.cont:                                      ; preds = %entry
  %is_exact_.i = getelementptr inbounds i8, ptr %a, i64 48
  %0 = load i8, ptr %is_exact_.i, align 8
  %1 = and i8 %0, 1
  %tobool.not.i = icmp eq i8 %1, 0
  br i1 %tobool.not.i, label %entry.if.end_crit_edge.i, label %if.then.i

entry.if.end_crit_edge.i:                         ; preds = %invoke.cont
  %match_3.phi.trans.insert.i = getelementptr inbounds i8, ptr %a, i64 56
  %.pre.i = load ptr, ptr %match_3.phi.trans.insert.i, align 8
  br label %_ZN3re29Prefilter4Info9TakeMatchEv.exit

if.then.i:                                        ; preds = %invoke.cont
  %call.i = tail call noundef ptr @_ZN3re29Prefilter9OrStringsEPSt3setINSt7__cxx1112basic_stringIcSt11char_traitsIcESaIcEEENS0_13LengthThenLexESaIS7_EE(ptr noundef nonnull %a)
  store i8 0, ptr %is_exact_.i, align 8
  br label %_ZN3re29Prefilter4Info9TakeMatchEv.exit

_ZN3re29Prefilter4Info9TakeMatchEv.exit:          ; preds = %entry.if.end_crit_edge.i, %if.then.i
  %2 = phi ptr [ %.pre.i, %entry.if.end_crit_edge.i ], [ %call.i, %if.then.i ]
  %match_3.i = getelementptr inbounds i8, ptr %a, i64 56
  store ptr null, ptr %match_3.i, align 8
  %match_ = getelementptr inbounds i8, ptr %call, i64 56
  store ptr %2, ptr %match_, align 8
  %is_exact_ = getelementptr inbounds i8, ptr %call, i64 48
  store i8 0, ptr %is_exact_, align 8
  tail call void @_ZN3re29Prefilter4InfoD1Ev(ptr noundef nonnull align 8 dereferenceable(64) %a) #16
  tail call void @_ZdlPv(ptr noundef nonnull %a) #18
  ret ptr %call

lpad:                                             ; preds = %entry
  %3 = landingpad { ptr, i32 }
          cleanup
  tail call void @_ZdlPv(ptr noundef nonnull %call) #18
  resume { ptr, i32 } %3
}